target datalayout = "e-m:e-p270:32:32-p271:32:32-p272:64:64-i64:64-i128:128-f80:128-n8:16:32:64-S128"
target triple = "x86_64-pc-linux-gnu"

%struct.sockaddr_storage = type { i16, [118 x i8], i64 }
%struct.slurm_msg = type { %struct.sockaddr_storage, ptr, i32, i32, i32, i8, i32, i8, i32, ptr, ptr, i32, ptr, ptr, i16, i8, i16, i16, %struct.forward, ptr, %struct.sockaddr_storage, ptr }
%struct.forward = type { %struct.slurm_node_alias_addrs_t, i16, i16, ptr, i32, i16, i16 }
%struct.slurm_node_alias_addrs_t = type { i64, ptr, ptr, i32, ptr }
%struct.accounting_update_msg_t = type { ptr, i16 }

@.str.148 = private unnamed_addr constant [41 x i8] c"sending updates to %s at %s(%hu) ver %hu\00", align 1
@slurmdbd_conf = external global ptr, align 8
@.str.149 = private unnamed_addr constant [36 x i8] c"update cluster: %m to %s at %s(%hu)\00", align 1

; Function Attrs: nounwind uwtable
define dso_local i32 @slurmdb_send_accounting_update(ptr noundef %0, ptr noundef %1, ptr noundef %2, i16 noundef zeroext %3, i16 noundef zeroext %4) #0 {
  %6 = alloca ptr, align 8
  %7 = alloca ptr, align 8
  %8 = alloca ptr, align 8
  %9 = alloca i16, align 2
  %10 = alloca i16, align 2
  %11 = alloca %struct.accounting_update_msg_t, align 8
  %12 = alloca %struct.slurm_msg, align 8
  %13 = alloca %struct.slurm_msg, align 8
  %14 = alloca i32, align 4
  %15 = alloca i32, align 4
  store ptr %0, ptr %6, align 8
  store ptr %1, ptr %7, align 8
  store ptr %2, ptr %8, align 8
  store i16 %3, ptr %9, align 2
  store i16 %4, ptr %10, align 2
  call void @llvm.lifetime.start.p0(i64 16, ptr %11) #10
  call void @llvm.lifetime.start.p0(i64 424, ptr %12) #10
  call void @llvm.lifetime.start.p0(i64 424, ptr %13) #10
  call void @llvm.lifetime.start.p0(i64 4, ptr %14) #10
  call void @llvm.lifetime.start.p0(i64 4, ptr %15) #10
  %16 = load i16, ptr %10, align 2
  %17 = zext i16 %16 to i32
  %18 = icmp sgt i32 %17, 11008
  br i1 %18, label %19, label %20

19:                                               ; preds = %5
  store i16 11008, ptr %10, align 2
  br label %20

20:                                               ; preds = %19, %5
  call void @llvm.memset.p0.i64(ptr align 8 %11, i8 0, i64 16, i1 false)
  %21 = load i16, ptr %10, align 2
  %22 = getelementptr inbounds nuw %struct.accounting_update_msg_t, ptr %11, i32 0, i32 1
  store i16 %21, ptr %22, align 8
  %23 = load ptr, ptr %6, align 8
  %24 = getelementptr inbounds nuw %struct.accounting_update_msg_t, ptr %11, i32 0, i32 0
  store ptr %23, ptr %24, align 8
  br label %25

25:                                               ; preds = %20
  br label %26

26:                                               ; preds = %25
  %27 = call i32 @get_log_level()
  %28 = icmp sge i32 %27, 5
  br i1 %28, label %29, label %36

29:                                               ; preds = %26
  %30 = load ptr, ptr %7, align 8
  %31 = load ptr, ptr %8, align 8
  %32 = load i16, ptr %9, align 2
  %33 = zext i16 %32 to i32
  %34 = load i16, ptr %10, align 2
  %35 = zext i16 %34 to i32
  call void (i32, ptr, ...) @log_var(i32 noundef 5, ptr noundef @.str.148, ptr noundef %30, ptr noundef %31, i32 noundef %33, i32 noundef %35)
  br label %36

36:                                               ; preds = %29, %26
  br label %37

37:                                               ; preds = %36
  br label %38

38:                                               ; preds = %37
  br label %39

39:                                               ; preds = %38
  br label %40

40:                                               ; preds = %39
  call void @slurm_msg_t_init(ptr noundef %12)
  %41 = getelementptr inbounds nuw %struct.slurm_msg, ptr %12, i32 0, i32 0
  %42 = load i16, ptr %9, align 2
  %43 = load ptr, ptr %8, align 8
  call void @slurm_set_addr(ptr noundef %41, i16 noundef zeroext %42, ptr noundef %43)
  %44 = load i16, ptr %10, align 2
  %45 = getelementptr inbounds nuw %struct.slurm_msg, ptr %12, i32 0, i32 17
  store i16 %44, ptr %45, align 2
  call void @slurm_msg_set_r_uid(ptr noundef %12, i32 noundef -1)
  %46 = getelementptr inbounds nuw %struct.slurm_msg, ptr %12, i32 0, i32 16
  store i16 10001, ptr %46, align 4
  %47 = load ptr, ptr @slurmdbd_conf, align 8
  %48 = icmp ne ptr %47, null
  br i1 %48, label %49, label %51

49:                                               ; preds = %40
  %50 = getelementptr inbounds nuw %struct.slurm_msg, ptr %12, i32 0, i32 14
  store i16 1, ptr %50, align 8
  br label %51

51:                                               ; preds = %49, %40
  %52 = getelementptr inbounds nuw %struct.slurm_msg, ptr %12, i32 0, i32 13
  store ptr %11, ptr %52, align 8
  call void @slurm_msg_t_init(ptr noundef %13)
  store i32 0, ptr %14, align 4
  br label %53

53:                                               ; preds = %66, %51
  %54 = load i32, ptr %14, align 4
  %55 = icmp slt i32 %54, 4
  br i1 %55, label %56, label %69

56:                                               ; preds = %53
  %57 = call i32 @slurm_send_recv_node_msg(ptr noundef %12, ptr noundef %13, i32 noundef 0)
  store i32 %57, ptr %15, align 4
  %58 = load i32, ptr %15, align 4
  %59 = icmp eq i32 %58, 0
  br i1 %59, label %64, label %60

60:                                               ; preds = %56
  %61 = call ptr @__errno_location() #13
  %62 = load i32, ptr %61, align 4
  %63 = icmp ne i32 %62, 5004
  br i1 %63, label %64, label %65

64:                                               ; preds = %60, %56
  br label %69

65:                                               ; preds = %60
  br label %66

66:                                               ; preds = %65
  %67 = load i32, ptr %14, align 4
  %68 = add nsw i32 %67, 1
  store i32 %68, ptr %14, align 4
  br label %53, !llvm.loop !36

69:                                               ; preds = %64, %53
  %70 = load i32, ptr %15, align 4
  %71 = icmp ne i32 %70, 0
  br i1 %71, label %72, label %78

72:                                               ; preds = %69
  %73 = load ptr, ptr %7, align 8
  %74 = load ptr, ptr %8, align 8
  %75 = load i16, ptr %9, align 2
  %76 = zext i16 %75 to i32
  %77 = call i32 (ptr, ...) @error(ptr noundef @.str.149, ptr noundef %73, ptr noundef %74, i32 noundef %76)
  store i32 -1, ptr %15, align 4
  br label %85

78:                                               ; preds = %69
  %79 = getelementptr inbounds nuw %struct.slurm_msg, ptr %13, i32 0, i32 16
  %80 = load i16, ptr %79, align 4
  %81 = zext i16 %80 to i32
  %82 = getelementptr inbounds nuw %struct.slurm_msg, ptr %13, i32 0, i32 13
  %83 = load ptr, ptr %82, align 8
  %84 = call i32 @slurm_get_return_code(i32 noundef %81, ptr noundef %83)
  store i32 %84, ptr %15, align 4
  br label %85

85:                                               ; preds = %78, %72
  %86 = getelementptr inbounds nuw %struct.slurm_msg, ptr %13, i32 0, i32 1
  %87 = load ptr, ptr %86, align 8
  %88 = icmp ne ptr %87, null
  br i1 %88, label %89, label %92

89:                                               ; preds = %85
  %90 = getelementptr inbounds nuw %struct.slurm_msg, ptr %13, i32 0, i32 1
  %91 = load ptr, ptr %90, align 8
  call void @auth_g_destroy(ptr noundef %91)
  br label %92

92:                                               ; preds = %89, %85
  %93 = getelementptr inbounds nuw %struct.slurm_msg, ptr %13, i32 0, i32 13
  %94 = load ptr, ptr %93, align 8
  call void @slurm_free_return_code_msg(ptr noundef %94)
  %95 = load i32, ptr %15, align 4
  call void @llvm.lifetime.end.p0(i64 4, ptr %15) #10
  call void @llvm.lifetime.end.p0(i64 4, ptr %14) #10
  call void @llvm.lifetime.end.p0(i64 424, ptr %13) #10
  call void @llvm.lifetime.end.p0(i64 424, ptr %12) #10
  call void @llvm.lifetime.end.p0(i64 16, ptr %11) #10
  ret i32 %95
}