; Function Attrs: nounwind uwtable
define dso_local i32 @slurmdb_send_accounting_update(ptr noundef %0, ptr noundef %1, ptr noundef %2, i16 noundef zeroext %3, i16 noundef zeroext %4) local_unnamed_addr #0 {
  %6 = alloca %struct.accounting_update_msg_t, align 8
  %7 = alloca %struct.slurm_msg, align 8
  %8 = alloca %struct.slurm_msg, align 8
  call void @llvm.lifetime.start.p0(i64 16, ptr nonnull %6) #19
  call void @llvm.lifetime.start.p0(i64 424, ptr nonnull %7) #19
  call void @llvm.lifetime.start.p0(i64 424, ptr nonnull %8) #19
  %spec.store.select = tail call i16 @llvm.umin.i16(i16 %4, i16 11008)
  %9 = getelementptr inbounds nuw i8, ptr %6, i64 8
  store i64 0, ptr %9, align 8
  %10 = getelementptr inbounds nuw i8, ptr %6, i64 8
  store i16 %spec.store.select, ptr %10, align 8
  store ptr %0, ptr %6, align 8
  %11 = tail call i32 @get_log_level() #19
  %12 = icmp sgt i32 %11, 4
  br i1 %12, label %13, label %16

13:                                               ; preds = %5
  %14 = zext i16 %3 to i32
  %15 = zext nneg i16 %spec.store.select to i32
  tail call void (i32, ptr, ...) @log_var(i32 noundef 5, ptr noundef nonnull @.str.148, ptr noundef %1, ptr noundef %2, i32 noundef %14, i32 noundef %15) #19
  br label %16

16:                                               ; preds = %13, %5
  call void @slurm_msg_t_init(ptr noundef nonnull %7) #19
  call void @slurm_set_addr(ptr noundef nonnull %7, i16 noundef zeroext %3, ptr noundef %2) #19
  %17 = getelementptr inbounds nuw i8, ptr %7, i64 214
  store i16 %spec.store.select, ptr %17, align 2
  call void @slurm_msg_set_r_uid(ptr noundef nonnull %7, i32 noundef -1) #19
  %18 = getelementptr inbounds nuw i8, ptr %7, i64 212
  store i16 10001, ptr %18, align 4
  %19 = load ptr, ptr @slurmdbd_conf, align 8
  %.not = icmp eq ptr %19, null
  br i1 %.not, label %22, label %20

20:                                               ; preds = %16
  %21 = getelementptr inbounds nuw i8, ptr %7, i64 208
  store i16 1, ptr %21, align 8
  br label %22

22:                                               ; preds = %20, %16
  %23 = getelementptr inbounds nuw i8, ptr %7, i64 200
  store ptr %6, ptr %23, align 8
  call void @slurm_msg_t_init(ptr noundef nonnull %8) #19
  br label %24

24:                                               ; preds = %27, %22
  %.01726 = phi i32 [ 0, %22 ], [ %30, %27 ]
  %25 = call i32 @slurm_send_recv_node_msg(ptr noundef nonnull %7, ptr noundef nonnull %8, i32 noundef 0) #19
  %26 = icmp eq i32 %25, 0
  br i1 %26, label %34, label %27

27:                                               ; preds = %24
  %28 = tail call ptr @__errno_location() #22
  %29 = load i32, ptr %28, align 4
  %.not21 = icmp ne i32 %29, 5004
  %30 = add nuw nsw i32 %.01726, 1
  %exitcond.not = icmp eq i32 %30, 4
  %or.cond = select i1 %.not21, i1 true, i1 %exitcond.not
  br i1 %or.cond, label %31, label %24, !llvm.loop !36

31:                                               ; preds = %27
  %32 = zext i16 %3 to i32
  %33 = call i32 (ptr, ...) @error(ptr noundef nonnull @.str.149, ptr noundef %1, ptr noundef %2, i32 noundef %32) #19
  br label %41

34:                                               ; preds = %24
  %35 = getelementptr inbounds nuw i8, ptr %8, i64 212
  %36 = load i16, ptr %35, align 4
  %37 = zext i16 %36 to i32
  %38 = getelementptr inbounds nuw i8, ptr %8, i64 200
  %39 = load ptr, ptr %38, align 8
  %40 = call i32 @slurm_get_return_code(i32 noundef %37, ptr noundef %39) #19
  br label %41

41:                                               ; preds = %34, %31
  %.2 = phi i32 [ -1, %31 ], [ %40, %34 ]
  %42 = getelementptr inbounds nuw i8, ptr %8, i64 128
  %43 = load ptr, ptr %42, align 8
  %.not23 = icmp eq ptr %43, null
  br i1 %.not23, label %45, label %44

44:                                               ; preds = %41
  call void @auth_g_destroy(ptr noundef nonnull %43) #19
  br label %45

45:                                               ; preds = %44, %41
  %46 = getelementptr inbounds nuw i8, ptr %8, i64 200
  %47 = load ptr, ptr %46, align 8
  call void @slurm_free_return_code_msg(ptr noundef %47) #19
  call void @llvm.lifetime.end.p0(i64 424, ptr nonnull %8) #19
  call void @llvm.lifetime.end.p0(i64 424, ptr nonnull %7) #19
  call void @llvm.lifetime.end.p0(i64 16, ptr nonnull %6) #19
  ret i32 %.2
}